; Function Attrs: nounwind uwtable
define hidden void @zim_Phar_isBuffering(ptr noundef readonly captures(none) %0, ptr noundef writeonly captures(none) %1) #0 {
  %3 = getelementptr inbounds nuw i8, ptr %0, i64 44
  %4 = load i32, ptr %3, align 4, !tbaa !8
  %.not = icmp eq i32 %4, 0
  br i1 %.not, label %.critedge, label %5, !prof !105

5:                                                ; preds = %2
  tail call void @zend_wrong_parameters_none_error() #20
  %6 = load ptr, ptr getelementptr inbounds nuw (i8, ptr @executor_globals, i64 960), align 8, !tbaa !9
  %7 = icmp ne ptr %6, null
  tail call void @llvm.assume(i1 %7)
  br label %28

.critedge:                                        ; preds = %2
  %8 = getelementptr inbounds nuw i8, ptr %0, i64 32
  %9 = load ptr, ptr %8, align 8, !tbaa !8
  %10 = getelementptr inbounds nuw i8, ptr %9, i64 24
  %11 = load ptr, ptr %10, align 8, !tbaa !109
  %12 = load i32, ptr %11, align 8, !tbaa !112
  %13 = sext i32 %12 to i64
  %14 = sub nsw i64 0, %13
  %15 = getelementptr inbounds i8, ptr %9, i64 %14
  %16 = load ptr, ptr %15, align 8, !tbaa !8
  %.not7 = icmp eq ptr %16, null
  br i1 %.not7, label %17, label %22

17:                                               ; preds = %.critedge
  %18 = load ptr, ptr @spl_ce_BadMethodCallException, align 8, !tbaa !54
  %19 = tail call ptr (ptr, i64, ptr, ...) @zend_throw_exception_ex(ptr noundef %18, i64 noundef 0, ptr noundef nonnull @.str.72) #20
  %20 = load ptr, ptr getelementptr inbounds nuw (i8, ptr @executor_globals, i64 960), align 8, !tbaa !9
  %21 = icmp ne ptr %20, null
  tail call void @llvm.assume(i1 %21)
  br label %28

22:                                               ; preds = %.critedge
  %23 = getelementptr inbounds nuw i8, ptr %16, i64 316
  %24 = load i16, ptr %23, align 4
  %25 = and i16 %24, 16
  %.not8 = icmp eq i16 %25, 0
  %26 = select i1 %.not8, i32 2, i32 3
  %27 = getelementptr inbounds nuw i8, ptr %1, i64 8
  store i32 %26, ptr %27, align 8, !tbaa !8
  br label %28

28:                                               ; preds = %17, %22, %5
  ret void
}